target datalayout = "e-m:e-p270:32:32-p271:32:32-p272:64:64-i64:64-i128:128-f80:128-n8:16:32:64-S128"
target triple = "x86_64-pc-linux-gnu"

%struct.TCGContext = type { ptr, ptr, ptr, ptr, ptr, i32, i32, i32, i32, i32, i32, i32, i8, i8, i8, i32, i32, i64, i64, i64, ptr, ptr, ptr, ptr, ptr, i64, ptr, ptr, ptr, ptr, %struct.anon, ptr, ptr, ptr, ptr, ptr, [6 x ptr], [6 x %struct.TCGTempSet], [512 x %struct.TCGTemp], %union.anon, %union.anon, %struct.anon.0, ptr, [32 x ptr], [512 x i16], ptr, [1 x %struct.__jmp_buf_tag] }
%struct.anon = type { ptr, ptr }
%struct.TCGTempSet = type { [8 x i64] }
%struct.TCGTemp = type { i64, i64, ptr, i64, ptr, i64, ptr }
%union.anon = type { %struct.QTailQLink }
%struct.QTailQLink = type { ptr, ptr }
%struct.anon.0 = type { ptr, ptr }
%struct.__jmp_buf_tag = type { [8 x i64], i32, %struct.__sigset_t }
%struct.__sigset_t = type { [16 x i64] }
%struct.TCGPool = type { ptr, i32, [4 x i8], [0 x i8] }

; Function Attrs: nounwind sspstrong uwtable
define dso_local ptr @tcg_malloc_internal(ptr noundef %0, i32 noundef %1) #0 {
  %3 = alloca ptr, align 8
  %4 = alloca ptr, align 8
  %5 = alloca i32, align 4
  %6 = alloca ptr, align 8
  %7 = alloca i32, align 4
  %8 = alloca i32, align 4
  store ptr %0, ptr %4, align 8
  store i32 %1, ptr %5, align 4
  call void @llvm.lifetime.start.p0(i64 8, ptr %6) #19
  store ptr null, ptr %6, align 8, !annotation !4
  call void @llvm.lifetime.start.p0(i64 4, ptr %7) #19
  store i32 0, ptr %7, align 4, !annotation !4
  %9 = load i32, ptr %5, align 4
  %10 = icmp sgt i32 %9, 32768
  br i1 %10, label %11, label %30

11:                                               ; preds = %2
  %12 = load i32, ptr %5, align 4
  %13 = sext i32 %12 to i64
  %14 = add i64 16, %13
  %15 = call noalias ptr @g_malloc(i64 noundef %14) #21
  store ptr %15, ptr %6, align 8
  %16 = load i32, ptr %5, align 4
  %17 = load ptr, ptr %6, align 8
  %18 = getelementptr inbounds nuw %struct.TCGPool, ptr %17, i32 0, i32 1
  store i32 %16, ptr %18, align 8
  %19 = load ptr, ptr %4, align 8
  %20 = getelementptr inbounds nuw %struct.TCGContext, ptr %19, i32 0, i32 4
  %21 = load ptr, ptr %20, align 8
  %22 = load ptr, ptr %6, align 8
  %23 = getelementptr inbounds nuw %struct.TCGPool, ptr %22, i32 0, i32 0
  store ptr %21, ptr %23, align 16
  %24 = load ptr, ptr %6, align 8
  %25 = load ptr, ptr %4, align 8
  %26 = getelementptr inbounds nuw %struct.TCGContext, ptr %25, i32 0, i32 4
  store ptr %24, ptr %26, align 8
  %27 = load ptr, ptr %6, align 8
  %28 = getelementptr inbounds nuw %struct.TCGPool, ptr %27, i32 0, i32 3
  %29 = getelementptr inbounds [0 x i8], ptr %28, i64 0, i64 0
  store ptr %29, ptr %3, align 8
  store i32 1, ptr %8, align 4
  br label %106

30:                                               ; preds = %2
  %31 = load ptr, ptr %4, align 8
  %32 = getelementptr inbounds nuw %struct.TCGContext, ptr %31, i32 0, i32 3
  %33 = load ptr, ptr %32, align 8
  store ptr %33, ptr %6, align 8
  %34 = load ptr, ptr %6, align 8
  %35 = icmp ne ptr %34, null
  br i1 %35, label %44, label %36

36:                                               ; preds = %30
  %37 = load ptr, ptr %4, align 8
  %38 = getelementptr inbounds nuw %struct.TCGContext, ptr %37, i32 0, i32 2
  %39 = load ptr, ptr %38, align 8
  store ptr %39, ptr %6, align 8
  %40 = load ptr, ptr %6, align 8
  %41 = icmp ne ptr %40, null
  br i1 %41, label %43, label %42

42:                                               ; preds = %36
  br label %50

43:                                               ; preds = %36
  br label %80

44:                                               ; preds = %30
  %45 = load ptr, ptr %6, align 8
  %46 = getelementptr inbounds nuw %struct.TCGPool, ptr %45, i32 0, i32 0
  %47 = load ptr, ptr %46, align 16
  %48 = icmp ne ptr %47, null
  br i1 %48, label %75, label %49

49:                                               ; preds = %44
  br label %50

50:                                               ; preds = %49, %42
  store i32 32768, ptr %7, align 4
  %51 = load i32, ptr %7, align 4
  %52 = sext i32 %51 to i64
  %53 = add i64 16, %52
  %54 = call noalias ptr @g_malloc(i64 noundef %53) #21
  store ptr %54, ptr %6, align 8
  %55 = load i32, ptr %7, align 4
  %56 = load ptr, ptr %6, align 8
  %57 = getelementptr inbounds nuw %struct.TCGPool, ptr %56, i32 0, i32 1
  store i32 %55, ptr %57, align 8
  %58 = load ptr, ptr %6, align 8
  %59 = getelementptr inbounds nuw %struct.TCGPool, ptr %58, i32 0, i32 0
  store ptr null, ptr %59, align 16
  %60 = load ptr, ptr %4, align 8
  %61 = getelementptr inbounds nuw %struct.TCGContext, ptr %60, i32 0, i32 3
  %62 = load ptr, ptr %61, align 8
  %63 = icmp ne ptr %62, null
  br i1 %63, label %64, label %70

64:                                               ; preds = %50
  %65 = load ptr, ptr %6, align 8
  %66 = load ptr, ptr %4, align 8
  %67 = getelementptr inbounds nuw %struct.TCGContext, ptr %66, i32 0, i32 3
  %68 = load ptr, ptr %67, align 8
  %69 = getelementptr inbounds nuw %struct.TCGPool, ptr %68, i32 0, i32 0
  store ptr %65, ptr %69, align 16
  br label %74

70:                                               ; preds = %50
  %71 = load ptr, ptr %6, align 8
  %72 = load ptr, ptr %4, align 8
  %73 = getelementptr inbounds nuw %struct.TCGContext, ptr %72, i32 0, i32 2
  store ptr %71, ptr %73, align 8
  br label %74

74:                                               ; preds = %70, %64
  br label %79

75:                                               ; preds = %44
  %76 = load ptr, ptr %6, align 8
  %77 = getelementptr inbounds nuw %struct.TCGPool, ptr %76, i32 0, i32 0
  %78 = load ptr, ptr %77, align 16
  store ptr %78, ptr %6, align 8
  br label %79

79:                                               ; preds = %75, %74
  br label %80

80:                                               ; preds = %79, %43
  br label %81

81:                                               ; preds = %80
  %82 = load ptr, ptr %6, align 8
  %83 = load ptr, ptr %4, align 8
  %84 = getelementptr inbounds nuw %struct.TCGContext, ptr %83, i32 0, i32 3
  store ptr %82, ptr %84, align 8
  %85 = load ptr, ptr %6, align 8
  %86 = getelementptr inbounds nuw %struct.TCGPool, ptr %85, i32 0, i32 3
  %87 = getelementptr inbounds [0 x i8], ptr %86, i64 0, i64 0
  %88 = load i32, ptr %5, align 4
  %89 = sext i32 %88 to i64
  %90 = getelementptr inbounds i8, ptr %87, i64 %89
  %91 = load ptr, ptr %4, align 8
  %92 = getelementptr inbounds nuw %struct.TCGContext, ptr %91, i32 0, i32 0
  store ptr %90, ptr %92, align 8
  %93 = load ptr, ptr %6, align 8
  %94 = getelementptr inbounds nuw %struct.TCGPool, ptr %93, i32 0, i32 3
  %95 = getelementptr inbounds [0 x i8], ptr %94, i64 0, i64 0
  %96 = load ptr, ptr %6, align 8
  %97 = getelementptr inbounds nuw %struct.TCGPool, ptr %96, i32 0, i32 1
  %98 = load i32, ptr %97, align 8
  %99 = sext i32 %98 to i64
  %100 = getelementptr inbounds i8, ptr %95, i64 %99
  %101 = load ptr, ptr %4, align 8
  %102 = getelementptr inbounds nuw %struct.TCGContext, ptr %101, i32 0, i32 1
  store ptr %100, ptr %102, align 8
  %103 = load ptr, ptr %6, align 8
  %104 = getelementptr inbounds nuw %struct.TCGPool, ptr %103, i32 0, i32 3
  %105 = getelementptr inbounds [0 x i8], ptr %104, i64 0, i64 0
  store ptr %105, ptr %3, align 8
  store i32 1, ptr %8, align 4
  br label %106

106:                                              ; preds = %81, %11
  call void @llvm.lifetime.end.p0(i64 4, ptr %7) #19
  call void @llvm.lifetime.end.p0(i64 8, ptr %6) #19
  %107 = load ptr, ptr %3, align 8
  ret ptr %107
}