; Function Attrs: nounwind sspstrong uwtable
define dso_local nonnull ptr @tcg_malloc_internal(ptr noundef captures(none) %0, i32 noundef %1) local_unnamed_addr #0 {
  %3 = icmp sgt i32 %1, 32768
  br i1 %3, label %4, label %11

4:                                                ; preds = %2
  %narrow = add nuw i32 %1, 16
  %5 = zext i32 %narrow to i64
  %6 = tail call noalias ptr @g_malloc(i64 noundef %5) #33
  %7 = getelementptr inbounds nuw i8, ptr %6, i64 8
  store i32 %1, ptr %7, align 8
  %8 = getelementptr inbounds nuw i8, ptr %0, i64 32
  %9 = load ptr, ptr %8, align 8
  store ptr %9, ptr %6, align 16
  store ptr %6, ptr %8, align 8
  %10 = getelementptr inbounds nuw i8, ptr %6, i64 16
  br label %35

11:                                               ; preds = %2
  %12 = getelementptr inbounds nuw i8, ptr %0, i64 24
  %13 = load ptr, ptr %12, align 8
  %.not = icmp eq ptr %13, null
  br i1 %.not, label %14, label %17

14:                                               ; preds = %11
  %15 = getelementptr inbounds nuw i8, ptr %0, i64 16
  %16 = load ptr, ptr %15, align 8
  %.not39 = icmp eq ptr %16, null
  br i1 %.not39, label %19, label %26

17:                                               ; preds = %11
  %18 = load ptr, ptr %13, align 16
  %.not40 = icmp eq ptr %18, null
  br i1 %.not40, label %19, label %26

19:                                               ; preds = %17, %14
  %20 = tail call noalias dereferenceable_or_null(32784) ptr @g_malloc(i64 noundef 32784) #33
  %21 = getelementptr inbounds nuw i8, ptr %20, i64 8
  store i32 32768, ptr %21, align 8
  store ptr null, ptr %20, align 16
  %22 = load ptr, ptr %12, align 8
  %.not41 = icmp eq ptr %22, null
  br i1 %.not41, label %24, label %23

23:                                               ; preds = %19
  store ptr %20, ptr %22, align 16
  br label %26

24:                                               ; preds = %19
  %25 = getelementptr inbounds nuw i8, ptr %0, i64 16
  store ptr %20, ptr %25, align 8
  br label %26

26:                                               ; preds = %17, %14, %23, %24
  %.0 = phi ptr [ %20, %23 ], [ %20, %24 ], [ %16, %14 ], [ %18, %17 ]
  store ptr %.0, ptr %12, align 8
  %27 = getelementptr inbounds nuw i8, ptr %.0, i64 16
  %28 = sext i32 %1 to i64
  %29 = getelementptr inbounds i8, ptr %27, i64 %28
  store ptr %29, ptr %0, align 8
  %30 = getelementptr inbounds nuw i8, ptr %.0, i64 8
  %31 = load i32, ptr %30, align 8
  %32 = sext i32 %31 to i64
  %33 = getelementptr inbounds i8, ptr %27, i64 %32
  %34 = getelementptr inbounds nuw i8, ptr %0, i64 8
  store ptr %33, ptr %34, align 8
  br label %35

35:                                               ; preds = %26, %4
  %.033 = phi ptr [ %10, %4 ], [ %27, %26 ]
  ret ptr %.033
}